Certificate:
    Data:
        Version: 3 (0x2)
        Serial Number: 1 (0x1)
    Signature Algorithm: sha256WithRSAEncryption
        Issuer: C=kw, ST=eg, L=rb, O=stab, OU=youee, CN=stab CA/name=EasyRSA/emailAddress=admin@iol.com
        Validity
            Not Before: Sep 19 12:10:31 2017 GMT
            Not After : Sep 17 12:10:31 2027 GMT
        Subject: C=kw, ST=eg, L=rb, O=stab, OU=youee, CN=jack/name=EasyRSA/emailAddress=admin@iol.com
        Subject Public Key Info:
            Public Key Algorithm: rsaEncryption
                Public-Key: (2048 bit)
                Modulus:
                    00:bf:e1:ca:79:30:39:2c:e9:07:78:81:a0:75:e2:
                    a8:9e:0b:b2:8f:7c:80:f1:0e:39:73:1d:20:44:0e:
                    f0:55:6a:62:9f:e9:b7:e7:41:d8:1e:61:d0:9a:2c:
                    83:c0:0b:62:e2:d7:1e:a3:c7:09:17:91:6f:6f:4f:
                    49:3a:97:50:52:65:70:bb:49:3f:fc:32:24:76:ba:
                    22:72:6d:59:0e:7d:48:f7:b9:b9:29:ae:43:09:fe:
                    a1:91:e5:cf:41:0f:bc:0d:91:7a:b8:ad:83:aa:93:
                    9f:25:bd:1f:53:85:27:04:00:09:52:7d:f4:90:51:
                    bb:09:71:37:b6:4f:44:56:b0:0f:c8:46:0b:75:82:
                    f4:a9:1b:0a:7a:8f:26:73:7b:a4:ba:c8:dc:50:55:
                    39:de:ee:af:ef:f7:05:b8:82:5a:4e:44:26:70:da:
                    8f:cd:c9:da:13:7a:84:9c:55:0a:2a:17:46:4c:b2:
                    1d:2f:74:af:3f:1f:19:ba:da:59:9c:0b:0f:14:be:
                    00:c7:36:1a:1e:ed:47:9c:1b:17:8f:ee:33:35:2a:
                    b9:11:f8:da:21:62:1c:c1:69:ef:f0:f0:04:37:c1:
                    86:17:9d:6c:8b:bf:42:c3:21:32:46:82:ed:d0:f2:
                    09:af:4d:2d:1d:ef:32:28:34:b9:d8:30:11:c8:75:
                    63:f5
                Exponent: 65537 (0x10001)
        X509v3 extensions:
            X509v3 Basic Constraints: 
                CA:FALSE
            Netscape Cert Type: 
                SSL Server
            Netscape Comment: 
                Easy-RSA Generated Server Certificate
            X509v3 Subject Key Identifier: 
                E6:FC:E5:1D:A2:91:EB:E8:C4:0E:75:3C:4B:02:26:27:7A:59:01:7B
            X509v3 Authority Key Identifier: 
                keyid:FB:57:7B:CF:A7:13:E0:0E:57:D6:12:6F:EE:74:62:E0:D3:92:52:8D
                DirName:/C=kw/ST=eg/L=rb/O=stab/OU=youee/CN=stab CA/name=EasyRSA/emailAddress=admin@iol.com
                serial:DB:F7:33:8D:38:2D:E0:27

            X509v3 Extended Key Usage: 
                TLS Web Server Authentication
            X509v3 Key Usage: 
                Digital Signature, Key Encipherment
    Signature Algorithm: sha256WithRSAEncryption
         29:56:1f:dc:8c:8b:30:e8:8d:49:10:01:ac:3e:9f:ac:f5:64:
         b1:db:5a:90:04:57:ca:de:c6:83:59:a5:41:f3:e0:53:b3:59:
         4e:37:ac:25:27:87:61:91:96:32:4b:0a:fe:d6:aa:57:3c:b1:
         e2:c4:67:26:51:24:41:c6:01:b5:b8:fd:95:b8:68:32:e6:df:
         fa:37:73:fb:a2:72:d4:de:9b:4e:86:0c:d7:7e:99:c6:b6:42:
         60:2d:83:ba:03:3e:54:b0:c5:48:80:81:54:3a:4f:a1:6b:01:
         a1:7c:f4:d0:c4:90:2e:25:1a:82:c1:a7:90:af:6c:8c:74:99:
         77:76:4a:0f:e8:05:08:33:bb:9f:3e:4e:b6:04:be:dd:67:21:
         40:17:12:86:79:50:dc:96:3b:9b:09:13:90:43:33:16:ce:88:
         0e:cd:17:31:69:93:1b:23:85:42:e9:d7:10:f4:7a:46:f9:13:
         f7:06:ae:92:0a:c9:36:93:37:a8:dd:c1:76:04:cc:46:ee:ca:
         15:2d:44:28:15:ca:9b:8b:bc:21:be:47:28:c7:57:68:70:b4:
         7d:af:54:dc:e7:92:a3:04:83:63:34:48:1e:c0:c8:f4:d4:4a:
         74:88:8a:26:96:8c:64:3a:43:b4:9f:6d:15:a4:14:31:fe:d7:
         3e:74:ee:9b
-----BEGIN CERTIFICATE-----
MIIE5TCCA82gAwIBAgIBATANBgkqhkiG9w0BAQsFADCBiDELMAkGA1UEBhMCa3cx
CzAJBgNVBAgTAmVnMQswCQYDVQQHEwJyYjENMAsGA1UEChMEc3RhYjEOMAwGA1UE
CxMFeW91ZWUxEDAOBgNVBAMTB3N0YWIgQ0ExEDAOBgNVBCkTB0Vhc3lSU0ExHDAa
BgkqhkiG9w0BCQEWDWFkbWluQGlvbC5jb20wHhcNMTcwOTE5MTIxMDMxWhcNMjcw
OTE3MTIxMDMxWjCBhTELMAkGA1UEBhMCa3cxCzAJBgNVBAgTAmVnMQswCQYDVQQH
EwJyYjENMAsGA1UEChMEc3RhYjEOMAwGA1UECxMFeW91ZWUxDTALBgNVBAMTBGph
Y2sxEDAOBgNVBCkTB0Vhc3lSU0ExHDAaBgkqhkiG9w0BCQEWDWFkbWluQGlvbC5j
b20wggEiMA0GCSqGSIb3DQEBAQUAA4IBDwAwggEKAoIBAQC/4cp5MDks6Qd4gaB1
4qieC7KPfIDxDjlzHSBEDvBVamKf6bfnQdgeYdCaLIPAC2Li1x6jxwkXkW9vT0k6
l1BSZXC7ST/8MiR2uiJybVkOfUj3ubkprkMJ/qGR5c9BD7wNkXq4rYOqk58lvR9T
hScEAAlSffSQUbsJcTe2T0RWsA/IRgt1gvSpGwp6jyZze6S6yNxQVTne7q/v9wW4
glpORCZw2o/NydoTeoScVQoqF0ZMsh0vdK8/Hxm62lmcCw8UvgDHNhoe7UecGxeP
7jM1KrkR+NohYhzBae/w8AQ3wYYXnWyLv0LDITJGgu3Q8gmvTS0d7zIoNLnYMBHI
dWP1AgMBAAGjggFZMIIBVTAJBgNVHRMEAjAAMBEGCWCGSAGG+EIBAQQEAwIGQDA0
BglghkgBhvhCAQ0EJxYlRWFzeS1SU0EgR2VuZXJhdGVkIFNlcnZlciBDZXJ0aWZp
Y2F0ZTAdBgNVHQ4EFgQU5vzlHaKR6+jEDnU8SwImJ3pZAXswgb0GA1UdIwSBtTCB
soAU+1d7z6cT4A5X1hJv7nRi4NOSUo2hgY6kgYswgYgxCzAJBgNVBAYTAmt3MQsw
CQYDVQQIEwJlZzELMAkGA1UEBxMCcmIxDTALBgNVBAoTBHN0YWIxDjAMBgNVBAsT
BXlvdWVlMRAwDgYDVQQDEwdzdGFiIENBMRAwDgYDVQQpEwdFYXN5UlNBMRwwGgYJ
KoZIhvcNAQkBFg1hZG1pbkBpb2wuY29tggkA2/czjTgt4CcwEwYDVR0lBAwwCgYI
KwYBBQUHAwEwCwYDVR0PBAQDAgWgMA0GCSqGSIb3DQEBCwUAA4IBAQApVh/cjIsw
6I1JEAGsPp+s9WSx21qQBFfK3saDWaVB8+BTs1lON6wlJ4dhkZYySwr+1qpXPLHi
xGcmUSRBxgG1uP2VuGgy5t/6N3P7onLU3ptOhgzXfpnGtkJgLYO6Az5UsMVIgIFU
Ok+hawGhfPTQxJAuJRqCwaeQr2yMdJl3dkoP6AUIM7ufPk62BL7dZyFAFxKGeVDc
ljubCROQQzMWzogOzRcxaZMbI4VC6dcQ9HpG+RP3Bq6SCsk2kzeo3cF2BMxG7soV
LUQoFcqbi7whvkcox1docLR9r1Tc55KjBINjNEgewMj01Ep0iIomloxkOkO0n20V
pBQx/tc+dO6b
-----END CERTIFICATE-----
